TN:
SF:/home/IvanBekrenev/Study/3семестр/LR3/array.h
FN:100,119,_ZN5Array12loadFromTextERKNSt7__cxx1112basic_stringIcSt11char_traitsIcESaIcEEE
FN:12,16,_ZN5ArrayC2Ei
FN:121,130,_ZN5Array12saveToBinaryERKNSt7__cxx1112basic_stringIcSt11char_traitsIcESaIcEEE
FN:132,151,_ZN5Array14loadFromBinaryERKNSt7__cxx1112basic_stringIcSt11char_traitsIcESaIcEEE
FN:158,169,_ZN5Array14resizeCapacityEv
FN:18,18,_ZN5ArrayD2Ev
FN:20,23,_ZN5Array8pushBackERKNSt7__cxx1112basic_stringIcSt11char_traitsIcESaIcEEE
FN:25,32,_ZN5Array9pushFrontERKNSt7__cxx1112basic_stringIcSt11char_traitsIcESaIcEEE
FN:34,42,_ZN5Array8insertAtEiRKNSt7__cxx1112basic_stringIcSt11char_traitsIcESaIcEEE
FN:44,46,_ZN5Array7popBackEv
FN:48,54,_ZN5Array8popFrontEv
FN:56,62,_ZN5Array8removeAtEi
FN:71,74,_ZNK5Array3getB5cxx11Ei
FN:81,81,_ZNK5Array7getSizeEv
FN:91,98,_ZN5Array10saveToTextERKNSt7__cxx1112basic_stringIcSt11char_traitsIcESaIcEEE
FNDA:2,_ZN5Array12loadFromTextERKNSt7__cxx1112basic_stringIcSt11char_traitsIcESaIcEEE
FNDA:10,_ZN5ArrayC2Ei
FNDA:2,_ZN5Array12saveToBinaryERKNSt7__cxx1112basic_stringIcSt11char_traitsIcESaIcEEE
FNDA:2,_ZN5Array14loadFromBinaryERKNSt7__cxx1112basic_stringIcSt11char_traitsIcESaIcEEE
FNDA:20,_ZN5Array14resizeCapacityEv
FNDA:10,_ZN5ArrayD2Ev
FNDA:16,_ZN5Array8pushBackERKNSt7__cxx1112basic_stringIcSt11char_traitsIcESaIcEEE
FNDA:2,_ZN5Array9pushFrontERKNSt7__cxx1112basic_stringIcSt11char_traitsIcESaIcEEE
FNDA:4,_ZN5Array8insertAtEiRKNSt7__cxx1112basic_stringIcSt11char_traitsIcESaIcEEE
FNDA:2,_ZN5Array7popBackEv
FNDA:2,_ZN5Array8popFrontEv
FNDA:2,_ZN5Array8removeAtEi
FNDA:16,_ZNK5Array3getB5cxx11Ei
FNDA:8,_ZNK5Array7getSizeEv
FNDA:2,_ZN5Array10saveToTextERKNSt7__cxx1112basic_stringIcSt11char_traitsIcESaIcEEE
FNF:15
FNH:15
DA:12,10
DA:13,10
DA:14,10
DA:15,110
DA:16,10
DA:18,86
DA:20,16
DA:21,16
DA:22,16
DA:23,16
DA:25,2
DA:26,2
DA:27,6
DA:28,4
DA:30,2
DA:31,2
DA:32,2
DA:34,4
DA:35,4
DA:36,2
DA:37,4
DA:38,2
DA:40,2
DA:41,2
DA:42,2
DA:44,2
DA:45,2
DA:46,2
DA:48,2
DA:49,2
DA:50,8
DA:51,6
DA:53,2
DA:56,2
DA:57,2
DA:58,0
DA:59,0
DA:61,0
DA:62,0
DA:71,16
DA:72,16
DA:73,12
DA:81,8
DA:91,2
DA:92,2
DA:93,2
DA:94,6
DA:95,4
DA:97,2
DA:98,2
DA:100,2
DA:101,2
DA:102,2
DA:104,2
DA:105,2
DA:106,2
DA:108,22
DA:109,2
DA:110,10
DA:111,2
DA:113,6
DA:114,4
DA:115,4
DA:116,4
DA:117,4
DA:118,2
DA:119,2
DA:121,2
DA:122,2
DA:123,2
DA:124,6
DA:125,4
DA:126,4
DA:127,4
DA:129,2
DA:130,2
DA:132,2
DA:133,2
DA:134,2
DA:136,2
DA:137,22
DA:138,2
DA:139,10
DA:140,2
DA:141,6
DA:143,4
DA:144,4
DA:145,4
DA:146,4
DA:147,4
DA:148,4
DA:150,2
DA:151,2
DA:158,20
DA:159,20
DA:160,0
DA:161,0
DA:162,0
DA:163,0
DA:165,0
DA:166,0
DA:167,0
DA:169,20
LF:103
LH:92
end_of_record
TN:
SF:/home/IvanBekrenev/Study/3семестр/LR3/doubleList.h
FN:110,120,_ZN10DoublyList7popBackEv
FN:122,142,_ZN10DoublyList13removeByValueERKNSt7__cxx1112basic_stringIcSt11char_traitsIcESaIcEEE
FN:13,13,_ZN5DNodeC2ENSt7__cxx1112basic_stringIcSt11char_traitsIcESaIcEEE
FN:144,151,_ZNK10DoublyList6searchERKNSt7__cxx1112basic_stringIcSt11char_traitsIcESaIcEEE
FN:154,154,_ZNK10DoublyList7getSizeEv
FN:174,182,_ZN10DoublyList10saveToTextERKNSt7__cxx1112basic_stringIcSt11char_traitsIcESaIcEEE
FN:18,18,_ZN10DoublyListC2Ev
FN:184,193,_ZN10DoublyList12loadFromTextERKNSt7__cxx1112basic_stringIcSt11char_traitsIcESaIcEEE
FN:195,206,_ZN10DoublyList12saveToBinaryERKNSt7__cxx1112basic_stringIcSt11char_traitsIcESaIcEEE
FN:20,20,_ZN10DoublyListD2Ev
FN:208,224,_ZN10DoublyList14loadFromBinaryERKNSt7__cxx1112basic_stringIcSt11char_traitsIcESaIcEEE
FN:22,30,_ZN10DoublyList5clearEv
FN:44,54,_ZN10DoublyList8pushBackERKNSt7__cxx1112basic_stringIcSt11char_traitsIcESaIcEEE
FN:56,75,_ZN10DoublyList11insertAfterERKNSt7__cxx1112basic_stringIcSt11char_traitsIcESaIcEEES7_
FN:77,96,_ZN10DoublyList12insertBeforeERKNSt7__cxx1112basic_stringIcSt11char_traitsIcESaIcEEES7_
FN:98,108,_ZN10DoublyList8popFrontEv
FNDA:2,_ZN10DoublyList7popBackEv
FNDA:4,_ZN10DoublyList13removeByValueERKNSt7__cxx1112basic_stringIcSt11char_traitsIcESaIcEEE
FNDA:28,_ZN5DNodeC2ENSt7__cxx1112basic_stringIcSt11char_traitsIcESaIcEEE
FNDA:18,_ZNK10DoublyList6searchERKNSt7__cxx1112basic_stringIcSt11char_traitsIcESaIcEEE
FNDA:14,_ZNK10DoublyList7getSizeEv
FNDA:2,_ZN10DoublyList10saveToTextERKNSt7__cxx1112basic_stringIcSt11char_traitsIcESaIcEEE
FNDA:12,_ZN10DoublyListC2Ev
FNDA:2,_ZN10DoublyList12loadFromTextERKNSt7__cxx1112basic_stringIcSt11char_traitsIcESaIcEEE
FNDA:2,_ZN10DoublyList12saveToBinaryERKNSt7__cxx1112basic_stringIcSt11char_traitsIcESaIcEEE
FNDA:12,_ZN10DoublyListD2Ev
FNDA:2,_ZN10DoublyList14loadFromBinaryERKNSt7__cxx1112basic_stringIcSt11char_traitsIcESaIcEEE
FNDA:16,_ZN10DoublyList5clearEv
FNDA:24,_ZN10DoublyList8pushBackERKNSt7__cxx1112basic_stringIcSt11char_traitsIcESaIcEEE
FNDA:2,_ZN10DoublyList11insertAfterERKNSt7__cxx1112basic_stringIcSt11char_traitsIcESaIcEEES7_
FNDA:2,_ZN10DoublyList12insertBeforeERKNSt7__cxx1112basic_stringIcSt11char_traitsIcESaIcEEES7_
FNDA:2,_ZN10DoublyList8popFrontEv
FNF:16
FNH:16
DA:13,28
DA:18,12
DA:20,12
DA:22,16
DA:23,54
DA:24,22
DA:25,22
DA:26,22
DA:28,16
DA:29,16
DA:30,16
DA:44,24
DA:45,24
DA:46,24
DA:47,12
DA:49,12
DA:50,12
DA:51,12
DA:53,24
DA:54,24
DA:56,2
DA:57,2
DA:58,4
DA:59,4
DA:60,2
DA:61,2
DA:62,2
DA:64,2
DA:65,0
DA:67,2
DA:69,2
DA:70,2
DA:71,2
DA:73,2
DA:77,2
DA:78,2
DA:79,2
DA:80,2
DA:81,2
DA:82,2
DA:83,2
DA:85,2
DA:86,0
DA:88,2
DA:90,2
DA:91,2
DA:92,2
DA:94,0
DA:98,2
DA:99,2
DA:100,2
DA:101,2
DA:102,2
DA:103,2
DA:105,0
DA:106,2
DA:107,2
DA:110,2
DA:111,2
DA:112,2
DA:113,2
DA:114,2
DA:115,2
DA:117,0
DA:118,2
DA:119,2
DA:122,4
DA:123,4
DA:124,6
DA:125,4
DA:126,2
DA:127,0
DA:129,2
DA:131,2
DA:132,0
DA:134,2
DA:136,2
DA:137,2
DA:138,2
DA:140,2
DA:144,18
DA:145,18
DA:146,34
DA:147,30
DA:148,16
DA:150,4
DA:154,14
DA:174,2
DA:175,2
DA:176,2
DA:177,6
DA:178,4
DA:179,4
DA:181,2
DA:182,2
DA:184,2
DA:185,2
DA:186,2
DA:187,2
DA:188,2
DA:189,6
DA:190,4
DA:192,2
DA:193,2
DA:195,2
DA:196,2
DA:197,2
DA:198,2
DA:199,6
DA:200,4
DA:201,4
DA:202,4
DA:203,4
DA:205,2
DA:206,2
DA:208,2
DA:209,2
DA:210,2
DA:211,2
DA:213,2
DA:214,6
DA:216,4
DA:217,4
DA:218,4
DA:219,4
DA:220,4
DA:221,4
DA:223,2
DA:224,2
LF:129
LH:122
end_of_record
TN:
SF:/home/IvanBekrenev/Study/3семестр/LR3/hashTable.h
FN:22,28,_ZNK9HashTable12hashFunctionERKNSt7__cxx1112basic_stringIcSt11char_traitsIcESaIcEEE
FN:31,31,_ZN9HashTableC2Ei
FN:33,43,_ZN9HashTable3putERKNSt7__cxx1112basic_stringIcSt11char_traitsIcESaIcEEES7_
FN:45,53,_ZNK9HashTable3getERKNSt7__cxx1112basic_stringIcSt11char_traitsIcESaIcEEE
FN:55,65,_ZN9HashTable6removeERKNSt7__cxx1112basic_stringIcSt11char_traitsIcESaIcEEE
FN:67,67,_ZNK9HashTable7getSizeEv
FNDA:26,_ZNK9HashTable12hashFunctionERKNSt7__cxx1112basic_stringIcSt11char_traitsIcESaIcEEE
FNDA:10,_ZN9HashTableC2Ei
FNDA:14,_ZN9HashTable3putERKNSt7__cxx1112basic_stringIcSt11char_traitsIcESaIcEEES7_
FNDA:10,_ZNK9HashTable3getERKNSt7__cxx1112basic_stringIcSt11char_traitsIcESaIcEEE
FNDA:2,_ZN9HashTable6removeERKNSt7__cxx1112basic_stringIcSt11char_traitsIcESaIcEEE
FNDA:8,_ZNK9HashTable7getSizeEv
FNF:6
FNH:6
DA:22,26
DA:23,26
DA:24,122
DA:25,96
DA:27,26
DA:31,10
DA:33,14
DA:34,14
DA:35,16
DA:36,4
DA:37,2
DA:38,2
DA:41,24
DA:42,12
DA:43,12
DA:45,10
DA:46,10
DA:47,10
DA:48,6
DA:49,6
DA:52,8
DA:55,2
DA:56,2
DA:57,2
DA:58,2
DA:59,2
DA:60,2
DA:61,2
DA:62,2
DA:67,8
LF:30
LH:30
end_of_record
TN:
SF:/home/IvanBekrenev/Study/3семестр/LR3/queue.h
FN:18,24,_ZN5QueueC2Ei
FN:26,26,_ZN5QueueD2Ev
FN:28,39,_ZN5Queue6resizeEv
FN:41,46,_ZN5Queue4pushERKNSt7__cxx1112basic_stringIcSt11char_traitsIcESaIcEEE
FN:48,54,_ZN5Queue3popB5cxx11Ev
FN:56,59,_ZNK5Queue4peekB5cxx11Ev
FN:61,61,_ZNK5Queue7getSizeEv
FNDA:10,_ZN5QueueC2Ei
FNDA:10,_ZN5QueueD2Ev
FNDA:2,_ZN5Queue6resizeEv
FNDA:18,_ZN5Queue4pushERKNSt7__cxx1112basic_stringIcSt11char_traitsIcESaIcEEE
FNDA:10,_ZN5Queue3popB5cxx11Ev
FNDA:6,_ZNK5Queue4peekB5cxx11Ev
FNDA:8,_ZNK5Queue7getSizeEv
FNF:7
FNH:7
DA:18,10
DA:19,10
DA:20,92
DA:21,10
DA:22,10
DA:23,10
DA:24,10
DA:26,94
DA:28,2
DA:29,2
DA:30,6
DA:31,4
DA:32,2
DA:34,4
DA:35,2
DA:36,2
DA:37,2
DA:38,2
DA:39,2
DA:41,18
DA:42,18
DA:43,18
DA:44,18
DA:45,18
DA:46,18
DA:48,10
DA:49,14
DA:50,8
DA:51,8
DA:52,8
DA:53,8
DA:54,8
DA:56,6
DA:57,10
DA:58,4
DA:61,8
LF:36
LH:36
end_of_record
TN:
SF:/home/IvanBekrenev/Study/3семестр/LR3/singleList.h
FN:100,115,_ZN10SinglyList7popBackEv
FN:117,137,_ZN10SinglyList13removeByValueERKNSt7__cxx1112basic_stringIcSt11char_traitsIcESaIcEEE
FN:12,12,_ZN4NodeC2ENSt7__cxx1112basic_stringIcSt11char_traitsIcESaIcEEE
FN:139,146,_ZNK10SinglyList6searchERKNSt7__cxx1112basic_stringIcSt11char_traitsIcESaIcEEE
FN:148,148,_ZNK10SinglyList7getHeadB5cxx11Ev
FN:149,149,_ZNK10SinglyList7getSizeEv
FN:160,168,_ZN10SinglyList10saveToTextERKNSt7__cxx1112basic_stringIcSt11char_traitsIcESaIcEEE
FN:170,179,_ZN10SinglyList12loadFromTextERKNSt7__cxx1112basic_stringIcSt11char_traitsIcESaIcEEE
FN:181,193,_ZN10SinglyList12saveToBinaryERKNSt7__cxx1112basic_stringIcSt11char_traitsIcESaIcEEE
FN:195,211,_ZN10SinglyList14loadFromBinaryERKNSt7__cxx1112basic_stringIcSt11char_traitsIcESaIcEEE
FN:22,22,_ZN10SinglyListC2Ev
FN:24,24,_ZN10SinglyListD2Ev
FN:26,34,_ZN10SinglyList5clearEv
FN:36,42,_ZN10SinglyList9pushFrontERKNSt7__cxx1112basic_stringIcSt11char_traitsIcESaIcEEE
FN:44,53,_ZN10SinglyList8pushBackERKNSt7__cxx1112basic_stringIcSt11char_traitsIcESaIcEEE
FN:55,68,_ZN10SinglyList11insertAfterERKNSt7__cxx1112basic_stringIcSt11char_traitsIcESaIcEEES7_
FN:70,89,_ZN10SinglyList12insertBeforeERKNSt7__cxx1112basic_stringIcSt11char_traitsIcESaIcEEES7_
FN:91,98,_ZN10SinglyList8popFrontEv
FNDA:6,_ZN10SinglyList7popBackEv
FNDA:4,_ZN10SinglyList13removeByValueERKNSt7__cxx1112basic_stringIcSt11char_traitsIcESaIcEEE
FNDA:42,_ZN4NodeC2ENSt7__cxx1112basic_stringIcSt11char_traitsIcESaIcEEE
FNDA:28,_ZNK10SinglyList6searchERKNSt7__cxx1112basic_stringIcSt11char_traitsIcESaIcEEE
FNDA:6,_ZNK10SinglyList7getHeadB5cxx11Ev
FNDA:20,_ZNK10SinglyList7getSizeEv
FNDA:2,_ZN10SinglyList10saveToTextERKNSt7__cxx1112basic_stringIcSt11char_traitsIcESaIcEEE
FNDA:2,_ZN10SinglyList12loadFromTextERKNSt7__cxx1112basic_stringIcSt11char_traitsIcESaIcEEE
FNDA:2,_ZN10SinglyList12saveToBinaryERKNSt7__cxx1112basic_stringIcSt11char_traitsIcESaIcEEE
FNDA:2,_ZN10SinglyList14loadFromBinaryERKNSt7__cxx1112basic_stringIcSt11char_traitsIcESaIcEEE
FNDA:18,_ZN10SinglyListC2Ev
FNDA:18,_ZN10SinglyListD2Ev
FNDA:24,_ZN10SinglyList5clearEv
FNDA:2,_ZN10SinglyList9pushFrontERKNSt7__cxx1112basic_stringIcSt11char_traitsIcESaIcEEE
FNDA:36,_ZN10SinglyList8pushBackERKNSt7__cxx1112basic_stringIcSt11char_traitsIcESaIcEEE
FNDA:2,_ZN10SinglyList11insertAfterERKNSt7__cxx1112basic_stringIcSt11char_traitsIcESaIcEEES7_
FNDA:4,_ZN10SinglyList12insertBeforeERKNSt7__cxx1112basic_stringIcSt11char_traitsIcESaIcEEES7_
FNDA:4,_ZN10SinglyList8popFrontEv
FNF:18
FNH:18
DA:12,42
DA:22,18
DA:24,18
DA:26,24
DA:27,82
DA:28,34
DA:29,34
DA:30,34
DA:32,24
DA:33,24
DA:34,24
DA:36,2
DA:37,2
DA:38,2
DA:39,2
DA:40,2
DA:41,2
DA:42,2
DA:44,36
DA:45,36
DA:46,36
DA:47,18
DA:49,18
DA:50,18
DA:52,36
DA:53,36
DA:55,2
DA:56,2
DA:57,4
DA:58,4
DA:59,2
DA:60,2
DA:61,2
DA:62,2
DA:63,2
DA:64,2
DA:66,2
DA:70,4
DA:71,4
DA:73,4
DA:74,2
DA:75,2
DA:78,2
DA:79,2
DA:80,2
DA:81,2
DA:82,2
DA:83,2
DA:84,2
DA:85,2
DA:87,0
DA:91,4
DA:92,4
DA:93,2
DA:94,2
DA:95,2
DA:96,2
DA:97,2
DA:100,6
DA:101,6
DA:102,4
DA:103,2
DA:104,2
DA:106,2
DA:107,2
DA:108,0
DA:110,2
DA:111,2
DA:112,2
DA:114,4
DA:117,4
DA:118,4
DA:120,4
DA:121,0
DA:122,0
DA:125,4
DA:126,8
DA:127,6
DA:128,2
DA:129,2
DA:130,2
DA:131,2
DA:132,2
DA:133,2
DA:135,4
DA:139,28
DA:140,28
DA:141,54
DA:142,46
DA:143,26
DA:145,8
DA:148,14
DA:149,20
DA:160,2
DA:161,2
DA:162,2
DA:163,6
DA:164,4
DA:165,4
DA:167,2
DA:168,2
DA:170,2
DA:171,2
DA:172,2
DA:173,2
DA:174,2
DA:175,6
DA:176,4
DA:178,2
DA:179,2
DA:181,2
DA:182,2
DA:183,2
DA:184,2
DA:185,2
DA:186,6
DA:187,4
DA:188,4
DA:189,4
DA:190,4
DA:192,2
DA:193,2
DA:195,2
DA:196,2
DA:197,2
DA:198,2
DA:200,2
DA:201,6
DA:203,4
DA:204,4
DA:205,4
DA:206,4
DA:207,4
DA:208,4
DA:210,2
DA:211,2
LF:136
LH:132
end_of_record
TN:
SF:/home/IvanBekrenev/Study/3семестр/LR3/stack.h
FN:16,25,_ZN5Stack6resizeEv
FN:28,32,_ZN5StackC2Ei
FN:34,34,_ZN5StackD2Ev
FN:36,41,_ZN5Stack4pushERKNSt7__cxx1112basic_stringIcSt11char_traitsIcESaIcEEE
FN:43,48,_ZN5Stack3popB5cxx11Ev
FN:50,53,_ZNK5Stack4peekB5cxx11Ev
FN:55,55,_ZNK5Stack7getSizeEv
FN:57,64,_ZN5Stack10saveToTextERKNSt7__cxx1112basic_stringIcSt11char_traitsIcESaIcEEE
FN:66,85,_ZN5Stack12loadFromTextERKNSt7__cxx1112basic_stringIcSt11char_traitsIcESaIcEEE
FN:87,96,_ZN5Stack12saveToBinaryERKNSt7__cxx1112basic_stringIcSt11char_traitsIcESaIcEEE
FN:98,119,_ZN5Stack14loadFromBinaryERKNSt7__cxx1112basic_stringIcSt11char_traitsIcESaIcEEE
FNDA:6,_ZN5Stack6resizeEv
FNDA:16,_ZN5StackC2Ei
FNDA:16,_ZN5StackD2Ev
FNDA:24,_ZN5Stack4pushERKNSt7__cxx1112basic_stringIcSt11char_traitsIcESaIcEEE
FNDA:16,_ZN5Stack3popB5cxx11Ev
FNDA:2,_ZNK5Stack4peekB5cxx11Ev
FNDA:12,_ZNK5Stack7getSizeEv
FNDA:2,_ZN5Stack10saveToTextERKNSt7__cxx1112basic_stringIcSt11char_traitsIcESaIcEEE
FNDA:4,_ZN5Stack12loadFromTextERKNSt7__cxx1112basic_stringIcSt11char_traitsIcESaIcEEE
FNDA:2,_ZN5Stack12saveToBinaryERKNSt7__cxx1112basic_stringIcSt11char_traitsIcESaIcEEE
FNDA:4,_ZN5Stack14loadFromBinaryERKNSt7__cxx1112basic_stringIcSt11char_traitsIcESaIcEEE
FNF:11
FNH:11
DA:16,6
DA:17,6
DA:18,20
DA:19,12
DA:20,6
DA:22,12
DA:23,6
DA:24,6
DA:25,6
DA:28,16
DA:29,16
DA:30,16
DA:31,138
DA:32,16
DA:34,122
DA:36,24
DA:37,24
DA:38,6
DA:40,24
DA:41,24
DA:43,16
DA:44,20
DA:45,14
DA:46,14
DA:47,14
DA:48,14
DA:50,2
DA:51,6
DA:52,0
DA:55,12
DA:57,2
DA:58,2
DA:59,2
DA:60,6
DA:61,4
DA:63,2
DA:64,2
DA:66,4
DA:67,4
DA:68,4
DA:70,2
DA:71,2
DA:72,2
DA:74,22
DA:75,2
DA:76,10
DA:77,2
DA:79,6
DA:80,4
DA:81,4
DA:82,4
DA:83,4
DA:84,2
DA:85,4
DA:87,2
DA:88,2
DA:89,2
DA:90,6
DA:91,4
DA:92,4
DA:93,4
DA:95,2
DA:96,2
DA:98,4
DA:99,4
DA:100,4
DA:102,2
DA:104,22
DA:105,2
DA:106,10
DA:107,2
DA:109,6
DA:111,4
DA:112,4
DA:113,4
DA:114,4
DA:115,4
DA:116,4
DA:118,2
DA:119,4
LF:80
LH:79
end_of_record
TN:
SF:/home/IvanBekrenev/Study/3семестр/LR3/treeAVL.h
FN:105,114,_ZN7AvlTree6insertESt10unique_ptrINS_4NodeESt14default_deleteIS1_EEi
FN:11,11,_ZN7AvlTree7TINSERTEi
FN:116,137,_ZN7AvlTree6removeESt10unique_ptrINS_4NodeESt14default_deleteIS1_EEi
FN:13,13,_ZN7AvlTree4TDELEi
FN:139,147,_ZNK7AvlTree8containsERKSt10unique_ptrINS_4NodeESt14default_deleteIS1_EEi
FN:149,154,_ZNK7AvlTree8preorderERKSt10unique_ptrINS_4NodeESt14default_deleteIS1_EERSt6vectorIiSaIiEE
FN:15,15,_ZNK7AvlTree8ISMEMBEREi
FN:156,161,_ZNK7AvlTree7inorderERKSt10unique_ptrINS_4NodeESt14default_deleteIS1_EERSt6vectorIiSaIiEE
FN:163,168,_ZNK7AvlTree9postorderERKSt10unique_ptrINS_4NodeESt14default_deleteIS1_EERSt6vectorIiSaIiEE
FN:170,181,_ZNK7AvlTree3bfsERKSt10unique_ptrINS_4NodeESt14default_deleteIS1_EERSt6vectorIiSaIiEE
FN:183,191,_ZNK7AvlTree11vecToStringB5cxx11ERKSt6vectorIiSaIiEE
FN:19,23,_ZNK7AvlTree14PRINT_PREORDERB5cxx11Ev
FN:25,29,_ZNK7AvlTree13PRINT_INORDERB5cxx11Ev
FN:31,35,_ZNK7AvlTree15PRINT_POSTORDERB5cxx11Ev
FN:37,41,_ZNK7AvlTree9PRINT_BFSB5cxx11Ev
FN:50,50,_ZN7AvlTree4NodeC2Ei
FN:55,55,_ZNK7AvlTree6heightERKSt10unique_ptrINS_4NodeESt14default_deleteIS1_EE
FN:57,59,_ZNK7AvlTree10getBalanceERKSt10unique_ptrINS_4NodeESt14default_deleteIS1_EE
FN:61,67,_ZN7AvlTree12updateHeightERSt10unique_ptrINS_4NodeESt14default_deleteIS1_EE
FN:69,76,_ZN7AvlTree10rotateLeftESt10unique_ptrINS_4NodeESt14default_deleteIS1_EE
FN:78,85,_ZN7AvlTree11rotateRightESt10unique_ptrINS_4NodeESt14default_deleteIS1_EE
FN:87,103,_ZN7AvlTree7balanceESt10unique_ptrINS_4NodeESt14default_deleteIS1_EE
FNDA:60,_ZN7AvlTree6insertESt10unique_ptrINS_4NodeESt14default_deleteIS1_EEi
FNDA:32,_ZN7AvlTree7TINSERTEi
FNDA:8,_ZN7AvlTree6removeESt10unique_ptrINS_4NodeESt14default_deleteIS1_EEi
FNDA:4,_ZN7AvlTree4TDELEi
FNDA:8,_ZNK7AvlTree8containsERKSt10unique_ptrINS_4NodeESt14default_deleteIS1_EEi
FNDA:28,_ZNK7AvlTree8preorderERKSt10unique_ptrINS_4NodeESt14default_deleteIS1_EERSt6vectorIiSaIiEE
FNDA:6,_ZNK7AvlTree8ISMEMBEREi
FNDA:70,_ZNK7AvlTree7inorderERKSt10unique_ptrINS_4NodeESt14default_deleteIS1_EERSt6vectorIiSaIiEE
FNDA:14,_ZNK7AvlTree9postorderERKSt10unique_ptrINS_4NodeESt14default_deleteIS1_EERSt6vectorIiSaIiEE
FNDA:2,_ZNK7AvlTree3bfsERKSt10unique_ptrINS_4NodeESt14default_deleteIS1_EERSt6vectorIiSaIiEE
FNDA:22,_ZNK7AvlTree11vecToStringB5cxx11ERKSt6vectorIiSaIiEE
FNDA:4,_ZNK7AvlTree14PRINT_PREORDERB5cxx11Ev
FNDA:14,_ZNK7AvlTree13PRINT_INORDERB5cxx11Ev
FNDA:2,_ZNK7AvlTree15PRINT_POSTORDERB5cxx11Ev
FNDA:2,_ZNK7AvlTree9PRINT_BFSB5cxx11Ev
FNDA:32,_ZN7AvlTree4NodeC2Ei
FNDA:192,_ZNK7AvlTree6heightERKSt10unique_ptrINS_4NodeESt14default_deleteIS1_EE
FNDA:40,_ZNK7AvlTree10getBalanceERKSt10unique_ptrINS_4NodeESt14default_deleteIS1_EE
FNDA:56,_ZN7AvlTree12updateHeightERSt10unique_ptrINS_4NodeESt14default_deleteIS1_EE
FNDA:6,_ZN7AvlTree10rotateLeftESt10unique_ptrINS_4NodeESt14default_deleteIS1_EE
FNDA:6,_ZN7AvlTree11rotateRightESt10unique_ptrINS_4NodeESt14default_deleteIS1_EE
FNDA:32,_ZN7AvlTree7balanceESt10unique_ptrINS_4NodeESt14default_deleteIS1_EE
FNF:22
FNH:22
DA:11,32
DA:13,4
DA:15,6
DA:19,4
DA:20,4
DA:21,4
DA:22,8
DA:23,4
DA:25,14
DA:26,14
DA:27,14
DA:28,28
DA:29,14
DA:31,2
DA:32,2
DA:33,2
DA:34,4
DA:35,2
DA:37,2
DA:38,2
DA:39,2
DA:40,4
DA:41,2
DA:50,32
DA:55,192
DA:57,40
DA:58,40
DA:61,56
DA:62,56
DA:63,56
DA:64,56
DA:65,56
DA:67,56
DA:69,6
DA:70,6
DA:71,6
DA:72,6
DA:73,6
DA:74,6
DA:75,6
DA:76,0
DA:78,6
DA:79,6
DA:80,6
DA:81,6
DA:82,6
DA:83,6
DA:84,6
DA:85,0
DA:87,32
DA:88,32
DA:89,32
DA:90,32
DA:91,2
DA:92,0
DA:94,2
DA:96,30
DA:97,6
DA:98,4
DA:100,6
DA:102,24
DA:105,60
DA:106,60
DA:107,28
DA:108,16
DA:109,12
DA:110,12
DA:112,0
DA:113,28
DA:116,8
DA:117,8
DA:119,8
DA:120,0
DA:121,8
DA:122,2
DA:125,6
DA:126,2
DA:129,2
DA:130,2
DA:131,0
DA:133,2
DA:134,2
DA:136,4
DA:139,8
DA:140,8
DA:141,4
DA:142,2
DA:143,2
DA:144,0
DA:146,2
DA:149,28
DA:150,28
DA:151,12
DA:152,12
DA:153,12
DA:156,70
DA:157,70
DA:158,28
DA:159,28
DA:160,28
DA:163,14
DA:164,14
DA:165,6
DA:166,6
DA:167,6
DA:170,2
DA:171,2
DA:172,2
DA:173,2
DA:174,10
DA:175,6
DA:176,6
DA:177,6
DA:178,6
DA:179,6
DA:181,2
DA:183,22
DA:184,26
DA:185,20
DA:186,72
DA:187,52
DA:188,52
DA:190,20
DA:191,20
LF:124
LH:117
end_of_record
